target datalayout = "e-m:e-p270:32:32-p271:32:32-p272:64:64-i64:64-i128:128-f80:128-n8:16:32:64-S128"
target triple = "x86_64-pc-linux-gnu"

%struct.ObjectAddresses = type { ptr, ptr, i32, i32 }

; Function Attrs: nounwind uwtable
define dso_local ptr @new_object_addresses() #0 {
  %1 = alloca ptr, align 8
  call void @llvm.lifetime.start.p0(i64 8, ptr %1) #8
  %2 = call ptr @palloc(i64 noundef 24)
  store ptr %2, ptr %1, align 8
  %3 = load ptr, ptr %1, align 8
  %4 = getelementptr inbounds nuw %struct.ObjectAddresses, ptr %3, i32 0, i32 2
  store i32 0, ptr %4, align 8
  %5 = load ptr, ptr %1, align 8
  %6 = getelementptr inbounds nuw %struct.ObjectAddresses, ptr %5, i32 0, i32 3
  store i32 32, ptr %6, align 4
  %7 = load ptr, ptr %1, align 8
  %8 = getelementptr inbounds nuw %struct.ObjectAddresses, ptr %7, i32 0, i32 3
  %9 = load i32, ptr %8, align 4
  %10 = sext i32 %9 to i64
  %11 = mul i64 %10, 12
  %12 = call ptr @palloc(i64 noundef %11)
  %13 = load ptr, ptr %1, align 8
  %14 = getelementptr inbounds nuw %struct.ObjectAddresses, ptr %13, i32 0, i32 0
  store ptr %12, ptr %14, align 8
  %15 = load ptr, ptr %1, align 8
  %16 = getelementptr inbounds nuw %struct.ObjectAddresses, ptr %15, i32 0, i32 1
  store ptr null, ptr %16, align 8
  %17 = load ptr, ptr %1, align 8
  call void @llvm.lifetime.end.p0(i64 8, ptr %1) #8
  ret ptr %17
}