; Function Attrs: nounwind uwtable
define dso_local ptr @new_object_addresses() local_unnamed_addr #0 {
  %1 = tail call ptr @palloc(i64 noundef 24) #9
  %2 = getelementptr inbounds nuw i8, ptr %1, i64 16
  store i32 0, ptr %2, align 8
  %3 = getelementptr inbounds nuw i8, ptr %1, i64 20
  store i32 32, ptr %3, align 4
  %4 = tail call ptr @palloc(i64 noundef 384) #9
  store ptr %4, ptr %1, align 8
  %5 = getelementptr inbounds nuw i8, ptr %1, i64 8
  store ptr null, ptr %5, align 8
  ret ptr %1
}